target datalayout = "e-m:e-p270:32:32-p271:32:32-p272:64:64-i64:64-i128:128-f80:128-n8:16:32:64-S128"
target triple = "x86_64-pc-linux-gnu"

%struct.strbuf = type { i64, i64, ptr }
%struct.helper_data = type { ptr, ptr, ptr, i16, ptr, ptr, %struct.refspec, %struct.git_transport_options }
%struct.refspec = type { ptr, i32, i32, i32 }
%struct.git_transport_options = type { i16, i32, ptr, ptr, ptr, ptr, ptr, %struct.list_objects_filter_options, ptr, ptr }
%struct.list_objects_filter_options = type { %struct.strbuf, i32, i8, ptr, i64, i64, i32, i64, i64, ptr }
%struct.transport = type { ptr, ptr, ptr, ptr, ptr, i8, ptr, i8, ptr, ptr, %struct.string_list, i8, ptr, i32, ptr }
%struct.string_list = type { ptr, i64, i64, i8, ptr }
%struct.child_process = type { %struct.strvec, %struct.strvec, i32, i32, i64, ptr, ptr, i32, i32, i32, ptr, i16, ptr }
%struct.strvec = type { ptr, i64, i64 }

@debug = internal global i32 0, align 4
@strbuf_slopbuf = external global [0 x i8], align 1
@.str.13 = private unnamed_addr constant [19 x i8] c"transport-helper.c\00", align 1
@.str.14 = private unnamed_addr constant [27 x i8] c"can't dup helper output fd\00", align 1
@.str.15 = private unnamed_addr constant [2 x i8] c"r\00", align 1
@stderr = external global ptr, align 8
@.str.37 = private unnamed_addr constant [1 x i8] zeroinitializer, align 1
@.str.38 = private unnamed_addr constant [28 x i8] c"Debug: Remote helper: -> %s\00", align 1
@.str.39 = private unnamed_addr constant [34 x i8] c"Debug: Remote helper: Waiting...\0A\00", align 1
@.str.40 = private unnamed_addr constant [28 x i8] c"Debug: Remote helper quit.\0A\00", align 1
@.str.41 = private unnamed_addr constant [29 x i8] c"Debug: Remote helper: <- %s\0A\00", align 1
@.str.42 = private unnamed_addr constant [11 x i8] c"./strbuf.h\00", align 1
@.str.43 = private unnamed_addr constant [30 x i8] c"strbuf_setlen() beyond buffer\00", align 1
@.str.60 = private unnamed_addr constant [35 x i8] c"full write to remote helper failed\00", align 1
@.str.69 = private unnamed_addr constant [42 x i8] c"Debug: Smart transport connection ready.\0A\00", align 1
@.str.70 = private unnamed_addr constant [9 x i8] c"fallback\00", align 1
@.str.71 = private unnamed_addr constant [40 x i8] c"Debug: Falling back to dumb transport.\0A\00", align 1
@.str.72 = private unnamed_addr constant [32 x i8] c"unknown response to connect: %s\00", align 1

; Function Attrs: inlinehint nounwind uwtable
define internal void @strbuf_setlen(ptr noundef %0, i64 noundef %1) #6 {
  %3 = alloca ptr, align 8
  %4 = alloca i64, align 8
  store ptr %0, ptr %3, align 8, !tbaa !114
  store i64 %1, ptr %4, align 8, !tbaa !62
  %5 = load i64, ptr %4, align 8, !tbaa !62
  %6 = load ptr, ptr %3, align 8, !tbaa !114
  %7 = getelementptr inbounds nuw %struct.strbuf, ptr %6, i32 0, i32 0
  %8 = load i64, ptr %7, align 8, !tbaa !120
  %9 = icmp ne i64 %8, 0
  br i1 %9, label %10, label %15

10:                                               ; preds = %2
  %11 = load ptr, ptr %3, align 8, !tbaa !114
  %12 = getelementptr inbounds nuw %struct.strbuf, ptr %11, i32 0, i32 0
  %13 = load i64, ptr %12, align 8, !tbaa !120
  %14 = sub i64 %13, 1
  br label %16

15:                                               ; preds = %2
  br label %16

16:                                               ; preds = %15, %10
  %17 = phi i64 [ %14, %10 ], [ 0, %15 ]
  %18 = icmp ugt i64 %5, %17
  br i1 %18, label %19, label %20

19:                                               ; preds = %16
  call void (ptr, i32, ptr, ...) @BUG_fl(ptr noundef @.str.42, i32 noundef 167, ptr noundef @.str.43) #13
  unreachable

20:                                               ; preds = %16
  %21 = load i64, ptr %4, align 8, !tbaa !62
  %22 = load ptr, ptr %3, align 8, !tbaa !114
  %23 = getelementptr inbounds nuw %struct.strbuf, ptr %22, i32 0, i32 1
  store i64 %21, ptr %23, align 8, !tbaa !116
  %24 = load ptr, ptr %3, align 8, !tbaa !114
  %25 = getelementptr inbounds nuw %struct.strbuf, ptr %24, i32 0, i32 2
  %26 = load ptr, ptr %25, align 8, !tbaa !105
  %27 = icmp ne ptr %26, @strbuf_slopbuf
  br i1 %27, label %28, label %34

28:                                               ; preds = %20
  %29 = load ptr, ptr %3, align 8, !tbaa !114
  %30 = getelementptr inbounds nuw %struct.strbuf, ptr %29, i32 0, i32 2
  %31 = load ptr, ptr %30, align 8, !tbaa !105
  %32 = load i64, ptr %4, align 8, !tbaa !62
  %33 = getelementptr inbounds nuw i8, ptr %31, i64 %32
  store i8 0, ptr %33, align 1, !tbaa !106
  br label %35

34:                                               ; preds = %20
  br label %35

35:                                               ; preds = %34, %28
  ret void
}

; Function Attrs: nounwind uwtable
define internal i32 @recvline_fh(ptr noundef %0, ptr noundef %1) #0 {
  %3 = alloca i32, align 4
  %4 = alloca ptr, align 8
  %5 = alloca ptr, align 8
  store ptr %0, ptr %4, align 8, !tbaa !81
  store ptr %1, ptr %5, align 8, !tbaa !114
  %6 = load ptr, ptr %5, align 8, !tbaa !114
  call void @strbuf_setlen(ptr noundef %6, i64 noundef 0)
  %7 = load i32, ptr @debug, align 4, !tbaa !29
  %8 = icmp ne i32 %7, 0
  br i1 %8, label %9, label %12

9:                                                ; preds = %2
  %10 = load ptr, ptr @stderr, align 8, !tbaa !81
  %11 = call i32 (ptr, ptr, ...) @fprintf(ptr noundef %10, ptr noundef @.str.39) #12
  br label %12

12:                                               ; preds = %9, %2
  %13 = load ptr, ptr %5, align 8, !tbaa !114
  %14 = load ptr, ptr %4, align 8, !tbaa !81
  %15 = call i32 @strbuf_getline(ptr noundef %13, ptr noundef %14)
  %16 = icmp eq i32 %15, -1
  br i1 %16, label %17, label %24

17:                                               ; preds = %12
  %18 = load i32, ptr @debug, align 4, !tbaa !29
  %19 = icmp ne i32 %18, 0
  br i1 %19, label %20, label %23

20:                                               ; preds = %17
  %21 = load ptr, ptr @stderr, align 8, !tbaa !81
  %22 = call i32 (ptr, ptr, ...) @fprintf(ptr noundef %21, ptr noundef @.str.40) #12
  br label %23

23:                                               ; preds = %20, %17
  store i32 1, ptr %3, align 4
  br label %34

24:                                               ; preds = %12
  %25 = load i32, ptr @debug, align 4, !tbaa !29
  %26 = icmp ne i32 %25, 0
  br i1 %26, label %27, label %33

27:                                               ; preds = %24
  %28 = load ptr, ptr @stderr, align 8, !tbaa !81
  %29 = load ptr, ptr %5, align 8, !tbaa !114
  %30 = getelementptr inbounds nuw %struct.strbuf, ptr %29, i32 0, i32 2
  %31 = load ptr, ptr %30, align 8, !tbaa !105
  %32 = call i32 (ptr, ptr, ...) @fprintf(ptr noundef %28, ptr noundef @.str.41, ptr noundef %31) #12
  br label %33

33:                                               ; preds = %27, %24
  store i32 0, ptr %3, align 4
  br label %34

34:                                               ; preds = %33, %23
  %35 = load i32, ptr %3, align 4
  ret i32 %35
}

; Function Attrs: nounwind uwtable
define internal void @sendline(ptr noundef %0, ptr noundef %1) #0 {
  %3 = alloca ptr, align 8
  %4 = alloca ptr, align 8
  store ptr %0, ptr %3, align 8, !tbaa !11
  store ptr %1, ptr %4, align 8, !tbaa !114
  %5 = load i32, ptr @debug, align 4, !tbaa !29
  %6 = icmp ne i32 %5, 0
  br i1 %6, label %7, label %13

7:                                                ; preds = %2
  %8 = load ptr, ptr @stderr, align 8, !tbaa !81
  %9 = load ptr, ptr %4, align 8, !tbaa !114
  %10 = getelementptr inbounds nuw %struct.strbuf, ptr %9, i32 0, i32 2
  %11 = load ptr, ptr %10, align 8, !tbaa !105
  %12 = call i32 (ptr, ptr, ...) @fprintf(ptr noundef %8, ptr noundef @.str.38, ptr noundef %11) #12
  br label %13

13:                                               ; preds = %7, %2
  %14 = load ptr, ptr %3, align 8, !tbaa !11
  %15 = getelementptr inbounds nuw %struct.helper_data, ptr %14, i32 0, i32 1
  %16 = load ptr, ptr %15, align 8, !tbaa !84
  %17 = getelementptr inbounds nuw %struct.child_process, ptr %16, i32 0, i32 7
  %18 = load i32, ptr %17, align 8, !tbaa !89
  %19 = load ptr, ptr %4, align 8, !tbaa !114
  %20 = getelementptr inbounds nuw %struct.strbuf, ptr %19, i32 0, i32 2
  %21 = load ptr, ptr %20, align 8, !tbaa !105
  %22 = load ptr, ptr %4, align 8, !tbaa !114
  %23 = getelementptr inbounds nuw %struct.strbuf, ptr %22, i32 0, i32 1
  %24 = load i64, ptr %23, align 8, !tbaa !116
  %25 = call i64 @write_in_full(i32 noundef %18, ptr noundef %21, i64 noundef %24)
  %26 = icmp slt i64 %25, 0
  br i1 %26, label %27, label %29

27:                                               ; preds = %13
  %28 = call ptr @_(ptr noundef @.str.60)
  call void (ptr, ...) @die_errno(ptr noundef %28) #13
  unreachable

29:                                               ; preds = %13
  ret void
}

; Function Attrs: nounwind uwtable
define internal i32 @run_connect(ptr noundef %0, ptr noundef %1) #0 {
  %3 = alloca ptr, align 8
  %4 = alloca ptr, align 8
  %5 = alloca ptr, align 8
  %6 = alloca i32, align 4
  %7 = alloca i32, align 4
  %8 = alloca ptr, align 8
  %9 = alloca ptr, align 8
  store ptr %0, ptr %3, align 8, !tbaa !4
  store ptr %1, ptr %4, align 8, !tbaa !114
  call void @llvm.lifetime.start.p0(i64 8, ptr %5) #12
  %10 = load ptr, ptr %3, align 8, !tbaa !4
  %11 = getelementptr inbounds nuw %struct.transport, ptr %10, i32 0, i32 3
  %12 = load ptr, ptr %11, align 8, !tbaa !30
  store ptr %12, ptr %5, align 8, !tbaa !11
  call void @llvm.lifetime.start.p0(i64 4, ptr %6) #12
  store i32 0, ptr %6, align 4, !tbaa !29
  call void @llvm.lifetime.start.p0(i64 4, ptr %7) #12
  call void @llvm.lifetime.start.p0(i64 8, ptr %8) #12
  call void @llvm.lifetime.start.p0(i64 8, ptr %9) #12
  %13 = load ptr, ptr %3, align 8, !tbaa !4
  %14 = call ptr @get_helper(ptr noundef %13)
  store ptr %14, ptr %9, align 8, !tbaa !92
  %15 = load ptr, ptr %9, align 8, !tbaa !92
  %16 = getelementptr inbounds nuw %struct.child_process, ptr %15, i32 0, i32 8
  %17 = load i32, ptr %16, align 4, !tbaa !85
  %18 = call i32 @dup(i32 noundef %17) #12
  store i32 %18, ptr %7, align 4, !tbaa !29
  %19 = load i32, ptr %7, align 4, !tbaa !29
  %20 = icmp slt i32 %19, 0
  br i1 %20, label %21, label %23

21:                                               ; preds = %2
  %22 = call ptr @_(ptr noundef @.str.14)
  call void (ptr, ...) @die_errno(ptr noundef %22) #13
  unreachable

23:                                               ; preds = %2
  %24 = load i32, ptr %7, align 4, !tbaa !29
  %25 = call ptr @xfdopen(i32 noundef %24, ptr noundef @.str.15)
  store ptr %25, ptr %8, align 8, !tbaa !81
  %26 = load ptr, ptr %8, align 8, !tbaa !81
  %27 = call i32 @setvbuf(ptr noundef %26, ptr noundef null, i32 noundef 2, i64 noundef 0) #12
  %28 = load ptr, ptr %5, align 8, !tbaa !11
  %29 = load ptr, ptr %4, align 8, !tbaa !114
  call void @sendline(ptr noundef %28, ptr noundef %29)
  %30 = load ptr, ptr %8, align 8, !tbaa !81
  %31 = load ptr, ptr %4, align 8, !tbaa !114
  %32 = call i32 @recvline_fh(ptr noundef %30, ptr noundef %31)
  %33 = icmp ne i32 %32, 0
  br i1 %33, label %34, label %36

34:                                               ; preds = %23
  %35 = call i32 @common_exit(ptr noundef @.str.13, i32 noundef 602, i32 noundef 128)
  call void @exit(i32 noundef %35) #16
  unreachable

36:                                               ; preds = %23
  %37 = load ptr, ptr %4, align 8, !tbaa !114
  %38 = getelementptr inbounds nuw %struct.strbuf, ptr %37, i32 0, i32 2
  %39 = load ptr, ptr %38, align 8, !tbaa !105
  %40 = call i32 @strcmp(ptr noundef %39, ptr noundef @.str.37) #14
  %41 = icmp ne i32 %40, 0
  br i1 %41, label %54, label %42

42:                                               ; preds = %36
  %43 = load ptr, ptr %5, align 8, !tbaa !11
  %44 = getelementptr inbounds nuw %struct.helper_data, ptr %43, i32 0, i32 3
  %45 = load i16, ptr %44, align 8
  %46 = and i16 %45, -1025
  %47 = or i16 %46, 1024
  store i16 %47, ptr %44, align 8
  %48 = load i32, ptr @debug, align 4, !tbaa !29
  %49 = icmp ne i32 %48, 0
  br i1 %49, label %50, label %53

50:                                               ; preds = %42
  %51 = load ptr, ptr @stderr, align 8, !tbaa !81
  %52 = call i32 (ptr, ptr, ...) @fprintf(ptr noundef %51, ptr noundef @.str.69) #12
  br label %53

53:                                               ; preds = %50, %42
  store i32 1, ptr %6, align 4, !tbaa !29
  br label %73

54:                                               ; preds = %36
  %55 = load ptr, ptr %4, align 8, !tbaa !114
  %56 = getelementptr inbounds nuw %struct.strbuf, ptr %55, i32 0, i32 2
  %57 = load ptr, ptr %56, align 8, !tbaa !105
  %58 = call i32 @strcmp(ptr noundef %57, ptr noundef @.str.70) #14
  %59 = icmp ne i32 %58, 0
  br i1 %59, label %67, label %60

60:                                               ; preds = %54
  %61 = load i32, ptr @debug, align 4, !tbaa !29
  %62 = icmp ne i32 %61, 0
  br i1 %62, label %63, label %66

63:                                               ; preds = %60
  %64 = load ptr, ptr @stderr, align 8, !tbaa !81
  %65 = call i32 (ptr, ptr, ...) @fprintf(ptr noundef %64, ptr noundef @.str.71) #12
  br label %66

66:                                               ; preds = %63, %60
  br label %72

67:                                               ; preds = %54
  %68 = call ptr @_(ptr noundef @.str.72)
  %69 = load ptr, ptr %4, align 8, !tbaa !114
  %70 = getelementptr inbounds nuw %struct.strbuf, ptr %69, i32 0, i32 2
  %71 = load ptr, ptr %70, align 8, !tbaa !105
  call void (ptr, ...) @die(ptr noundef %68, ptr noundef %71) #13
  unreachable

72:                                               ; preds = %66
  br label %73

73:                                               ; preds = %72, %53
  %74 = load ptr, ptr %8, align 8, !tbaa !81
  %75 = call i32 @fclose(ptr noundef %74)
  %76 = load i32, ptr %6, align 4, !tbaa !29
  call void @llvm.lifetime.end.p0(i64 8, ptr %9) #12
  call void @llvm.lifetime.end.p0(i64 8, ptr %8) #12
  call void @llvm.lifetime.end.p0(i64 4, ptr %7) #12
  call void @llvm.lifetime.end.p0(i64 4, ptr %6) #12
  call void @llvm.lifetime.end.p0(i64 8, ptr %5) #12
  ret i32 %76
}