; Function Attrs: nounwind uwtable
define internal fastcc range(i32 0, 2) i32 @run_connect(ptr noundef readonly captures(none) %0, ptr noundef nonnull %1) unnamed_addr #0 {
  %3 = getelementptr inbounds nuw i8, ptr %0, i64 24
  %4 = load ptr, ptr %3, align 8, !tbaa !24
  %5 = tail call fastcc ptr @get_helper(ptr noundef %0)
  %6 = getelementptr inbounds nuw i8, ptr %5, i64 84
  %7 = load i32, ptr %6, align 4, !tbaa !91
  %8 = tail call i32 @dup(i32 noundef %7) #19
  %9 = icmp slt i32 %8, 0
  br i1 %9, label %10, label %12

10:                                               ; preds = %2
  %11 = tail call fastcc ptr @_(ptr noundef nonnull @.str.14)
  tail call void (ptr, ...) @die_errno(ptr noundef %11) #20
  unreachable

12:                                               ; preds = %2
  %13 = tail call ptr @xfdopen(i32 noundef %8, ptr noundef nonnull @.str.15) #19
  %14 = tail call i32 @setvbuf(ptr noundef %13, ptr noundef null, i32 noundef 2, i64 noundef 0) #19
  %.b.i = load i1, ptr @debug, align 4
  br i1 %.b.i, label %15, label %20

15:                                               ; preds = %12
  %16 = load ptr, ptr @stderr, align 8, !tbaa !82
  %17 = getelementptr inbounds nuw i8, ptr %1, i64 16
  %18 = load ptr, ptr %17, align 8, !tbaa !65
  %19 = tail call i32 (ptr, ptr, ...) @fprintf(ptr noundef %16, ptr noundef nonnull @.str.38, ptr noundef %18) #22
  br label %20

20:                                               ; preds = %15, %12
  %21 = getelementptr inbounds nuw i8, ptr %4, i64 8
  %22 = load ptr, ptr %21, align 8, !tbaa !71
  %23 = getelementptr inbounds nuw i8, ptr %22, i64 80
  %24 = load i32, ptr %23, align 8, !tbaa !83
  %25 = getelementptr inbounds nuw i8, ptr %1, i64 16
  %26 = load ptr, ptr %25, align 8, !tbaa !65
  %27 = getelementptr inbounds nuw i8, ptr %1, i64 8
  %28 = load i64, ptr %27, align 8, !tbaa !64
  %29 = tail call i64 @write_in_full(i32 noundef %24, ptr noundef %26, i64 noundef %28) #19
  %30 = icmp slt i64 %29, 0
  br i1 %30, label %31, label %sendline.exit

31:                                               ; preds = %20
  %32 = tail call fastcc ptr @_(ptr noundef nonnull @.str.60)
  tail call void (ptr, ...) @die_errno(ptr noundef %32) #20
  unreachable

sendline.exit:                                    ; preds = %20
  store i64 0, ptr %27, align 8, !tbaa !64
  %33 = load ptr, ptr %25, align 8, !tbaa !65
  %.not9.i.i = icmp eq ptr %33, @strbuf_slopbuf
  br i1 %.not9.i.i, label %strbuf_setlen.exit.i, label %34

34:                                               ; preds = %sendline.exit
  store i8 0, ptr %33, align 1, !tbaa !66
  br label %strbuf_setlen.exit.i

strbuf_setlen.exit.i:                             ; preds = %34, %sendline.exit
  %.b5.i = load i1, ptr @debug, align 4
  br i1 %.b5.i, label %35, label %38

35:                                               ; preds = %strbuf_setlen.exit.i
  %36 = load ptr, ptr @stderr, align 8, !tbaa !82
  %37 = tail call i64 @fwrite(ptr nonnull @.str.39, i64 33, i64 1, ptr %36) #23
  br label %38

38:                                               ; preds = %35, %strbuf_setlen.exit.i
  %39 = tail call i32 @strbuf_getline(ptr noundef nonnull %1, ptr noundef %13) #19
  %40 = icmp eq i32 %39, -1
  %.b4.i = load i1, ptr @debug, align 4
  br i1 %40, label %41, label %45

41:                                               ; preds = %38
  br i1 %.b4.i, label %42, label %recvline_fh.exit

42:                                               ; preds = %41
  %43 = load ptr, ptr @stderr, align 8, !tbaa !82
  %44 = tail call i64 @fwrite(ptr nonnull @.str.40, i64 27, i64 1, ptr %43) #23
  br label %recvline_fh.exit

45:                                               ; preds = %38
  br i1 %.b4.i, label %46, label %51

46:                                               ; preds = %45
  %47 = load ptr, ptr @stderr, align 8, !tbaa !82
  %48 = load ptr, ptr %25, align 8, !tbaa !65
  %49 = tail call i32 (ptr, ptr, ...) @fprintf(ptr noundef %47, ptr noundef nonnull @.str.41, ptr noundef %48) #22
  br label %51

recvline_fh.exit:                                 ; preds = %42, %41
  %50 = tail call i32 @common_exit(ptr noundef nonnull @.str.13, i32 noundef 602, i32 noundef 128) #19
  tail call void @exit(i32 noundef %50) #20
  unreachable

51:                                               ; preds = %46, %45
  %52 = load ptr, ptr %25, align 8, !tbaa !65
  %strcmpload = load i8, ptr %52, align 1
  %.not17 = icmp eq i8 %strcmpload, 0
  br i1 %.not17, label %53, label %60

53:                                               ; preds = %51
  %54 = getelementptr inbounds nuw i8, ptr %4, i64 24
  %55 = load i16, ptr %54, align 8
  %56 = or i16 %55, 1024
  store i16 %56, ptr %54, align 8
  %.b16 = load i1, ptr @debug, align 4
  br i1 %.b16, label %57, label %69

57:                                               ; preds = %53
  %58 = load ptr, ptr @stderr, align 8, !tbaa !82
  %59 = tail call i64 @fwrite(ptr nonnull @.str.69, i64 41, i64 1, ptr %58) #23
  br label %69

60:                                               ; preds = %51
  %61 = tail call i32 @strcmp(ptr noundef nonnull dereferenceable(1) %52, ptr noundef nonnull dereferenceable(9) @.str.70) #21
  %.not18 = icmp eq i32 %61, 0
  br i1 %.not18, label %62, label %66

62:                                               ; preds = %60
  %.b = load i1, ptr @debug, align 4
  br i1 %.b, label %63, label %69

63:                                               ; preds = %62
  %64 = load ptr, ptr @stderr, align 8, !tbaa !82
  %65 = tail call i64 @fwrite(ptr nonnull @.str.71, i64 39, i64 1, ptr %64) #23
  br label %69

66:                                               ; preds = %60
  %67 = tail call fastcc ptr @_(ptr noundef nonnull @.str.72)
  %68 = load ptr, ptr %25, align 8, !tbaa !65
  tail call void (ptr, ...) @die(ptr noundef %67, ptr noundef %68) #20
  unreachable

69:                                               ; preds = %53, %57, %63, %62
  %.0 = phi i32 [ 0, %63 ], [ 0, %62 ], [ 1, %57 ], [ 1, %53 ]
  %70 = tail call i32 @fclose(ptr noundef %13)
  ret i32 %.0
}